; Function Attrs: mustprogress uwtable
define dso_local noundef zeroext i1 @_ZNK4absl12log_internal10LogMessage7IsFatalEv(ptr noundef nonnull readonly align 8 captures(none) dereferenceable(16) %0) local_unnamed_addr #0 align 2 {
  %2 = getelementptr inbounds nuw i8, ptr %0, i64 8
  %3 = load ptr, ptr %2, align 8, !tbaa !4
  %4 = getelementptr inbounds nuw i8, ptr %3, i64 40
  %5 = load i32, ptr %4, align 8, !tbaa !91
  %6 = icmp eq i32 %5, 3
  br i1 %6, label %7, label %9

7:                                                ; preds = %1
  %8 = tail call noundef zeroext i1 @_ZN4absl12log_internal12ExitOnDFatalEv()
  br label %9

9:                                                ; preds = %7, %1
  %10 = phi i1 [ false, %1 ], [ %8, %7 ]
  ret i1 %10
}